target datalayout = "e-m:e-p270:32:32-p271:32:32-p272:64:64-i64:64-i128:128-f80:128-n8:16:32:64-S128"
target triple = "x86_64-pc-linux-gnu"

%struct._lv_cache_ops_t = type { ptr, ptr, ptr }
%struct._lv_cache_class_t = type { ptr, ptr, ptr, ptr, ptr, ptr, ptr, ptr, ptr, ptr, ptr }
%struct._lv_cache_t = type { ptr, i32, i32, i32, %struct._lv_cache_ops_t, i32, ptr }

; Function Attrs: nounwind uwtable
define internal zeroext i1 @cache_evict_one_internal_no_lock(ptr noundef %0, ptr noundef %1) #0 {
  %3 = alloca i1, align 1
  %4 = alloca ptr, align 8
  %5 = alloca ptr, align 8
  %6 = alloca ptr, align 8
  %7 = alloca i32, align 4
  store ptr %0, ptr %4, align 8, !tbaa !3
  store ptr %1, ptr %5, align 8, !tbaa !3
  call void @llvm.lifetime.start.p0(i64 8, ptr %6) #4
  %8 = load ptr, ptr %4, align 8, !tbaa !3
  %9 = getelementptr inbounds nuw %struct._lv_cache_t, ptr %8, i32 0, i32 0
  %10 = load ptr, ptr %9, align 8, !tbaa !11
  %11 = getelementptr inbounds nuw %struct._lv_cache_class_t, ptr %10, i32 0, i32 8
  %12 = load ptr, ptr %11, align 8, !tbaa !35
  %13 = load ptr, ptr %4, align 8, !tbaa !3
  %14 = load ptr, ptr %5, align 8, !tbaa !3
  %15 = call ptr %12(ptr noundef %13, ptr noundef %14)
  store ptr %15, ptr %6, align 8, !tbaa !3
  %16 = load ptr, ptr %6, align 8, !tbaa !3
  %17 = icmp eq ptr %16, null
  br i1 %17, label %18, label %22

18:                                               ; preds = %2
  br label %19

19:                                               ; preds = %18
  br label %20

20:                                               ; preds = %19
  br label %21

21:                                               ; preds = %20
  store i1 false, ptr %3, align 1
  store i32 1, ptr %7, align 4
  br label %39

22:                                               ; preds = %2
  %23 = load ptr, ptr %4, align 8, !tbaa !3
  %24 = getelementptr inbounds nuw %struct._lv_cache_t, ptr %23, i32 0, i32 0
  %25 = load ptr, ptr %24, align 8, !tbaa !11
  %26 = getelementptr inbounds nuw %struct._lv_cache_class_t, ptr %25, i32 0, i32 5
  %27 = load ptr, ptr %26, align 8, !tbaa !33
  %28 = load ptr, ptr %4, align 8, !tbaa !3
  %29 = load ptr, ptr %6, align 8, !tbaa !3
  %30 = load ptr, ptr %5, align 8, !tbaa !3
  call void %27(ptr noundef %28, ptr noundef %29, ptr noundef %30)
  %31 = load ptr, ptr %4, align 8, !tbaa !3
  %32 = getelementptr inbounds nuw %struct._lv_cache_t, ptr %31, i32 0, i32 4
  %33 = getelementptr inbounds nuw %struct._lv_cache_ops_t, ptr %32, i32 0, i32 2
  %34 = load ptr, ptr %33, align 8, !tbaa !22
  %35 = load ptr, ptr %6, align 8, !tbaa !3
  %36 = call ptr @lv_cache_entry_get_data(ptr noundef %35)
  %37 = load ptr, ptr %5, align 8, !tbaa !3
  call void %34(ptr noundef %36, ptr noundef %37)
  %38 = load ptr, ptr %6, align 8, !tbaa !3
  call void @lv_cache_entry_delete(ptr noundef %38)
  store i1 true, ptr %3, align 1
  store i32 1, ptr %7, align 4
  br label %39

39:                                               ; preds = %22, %21
  call void @llvm.lifetime.end.p0(i64 8, ptr %6) #4
  %40 = load i1, ptr %3, align 1
  ret i1 %40
}

; Function Attrs: nounwind uwtable
define void @lv_cache_reserve(ptr noundef %0, i32 noundef %1, ptr noundef %2) #0 {
  %4 = alloca ptr, align 8
  %5 = alloca i32, align 4
  %6 = alloca ptr, align 8
  %7 = alloca i32, align 4
  store ptr %0, ptr %4, align 8, !tbaa !3
  store i32 %1, ptr %5, align 4, !tbaa !24
  store ptr %2, ptr %6, align 8, !tbaa !3
  br label %8

8:                                                ; preds = %3
  %9 = load ptr, ptr %4, align 8, !tbaa !3
  %10 = icmp ne ptr %9, null
  br i1 %10, label %15, label %11

11:                                               ; preds = %8
  br label %12

12:                                               ; preds = %11
  br label %13

13:                                               ; preds = %12
  br label %14

14:                                               ; preds = %13, %14
  br label %14

15:                                               ; preds = %8
  br label %16

16:                                               ; preds = %15
  call void @llvm.lifetime.start.p0(i64 4, ptr %7) #4
  %17 = load ptr, ptr %4, align 8, !tbaa !3
  %18 = getelementptr inbounds nuw %struct._lv_cache_t, ptr %17, i32 0, i32 0
  %19 = load ptr, ptr %18, align 8, !tbaa !11
  %20 = getelementptr inbounds nuw %struct._lv_cache_class_t, ptr %19, i32 0, i32 9
  %21 = load ptr, ptr %20, align 8, !tbaa !23
  %22 = load ptr, ptr %4, align 8, !tbaa !3
  %23 = load i32, ptr %5, align 4, !tbaa !24
  %24 = zext i32 %23 to i64
  %25 = load ptr, ptr %6, align 8, !tbaa !3
  %26 = call i32 %21(ptr noundef %22, ptr noundef null, i64 noundef %24, ptr noundef %25)
  store i32 %26, ptr %7, align 4, !tbaa !24
  br label %27

27:                                               ; preds = %35, %16
  %28 = load i32, ptr %7, align 4, !tbaa !24
  %29 = icmp eq i32 %28, 2
  br i1 %29, label %31, label %30

30:                                               ; preds = %27
  call void @llvm.lifetime.end.p0(i64 4, ptr %7) #4
  br label %46

31:                                               ; preds = %27
  %32 = load ptr, ptr %4, align 8, !tbaa !3
  %33 = load ptr, ptr %6, align 8, !tbaa !3
  %34 = call zeroext i1 @cache_evict_one_internal_no_lock(ptr noundef %32, ptr noundef %33)
  br label %35

35:                                               ; preds = %31
  %36 = load ptr, ptr %4, align 8, !tbaa !3
  %37 = getelementptr inbounds nuw %struct._lv_cache_t, ptr %36, i32 0, i32 0
  %38 = load ptr, ptr %37, align 8, !tbaa !11
  %39 = getelementptr inbounds nuw %struct._lv_cache_class_t, ptr %38, i32 0, i32 9
  %40 = load ptr, ptr %39, align 8, !tbaa !23
  %41 = load ptr, ptr %4, align 8, !tbaa !3
  %42 = load i32, ptr %5, align 4, !tbaa !24
  %43 = zext i32 %42 to i64
  %44 = load ptr, ptr %6, align 8, !tbaa !3
  %45 = call i32 %40(ptr noundef %41, ptr noundef null, i64 noundef %43, ptr noundef %44)
  store i32 %45, ptr %7, align 4, !tbaa !24
  br label %27, !llvm.loop !34

46:                                               ; preds = %30
  ret void
}