; Function Attrs: nounwind uwtable
define void @lv_cache_reserve(ptr noundef %0, i32 noundef %1, ptr noundef %2) local_unnamed_addr #0 {
  %.not = icmp eq ptr %0, null
  br i1 %.not, label %.preheader, label %4

.preheader:                                       ; preds = %3, %.preheader
  br label %.preheader

4:                                                ; preds = %3
  %5 = load ptr, ptr %0, align 8, !tbaa !8
  %6 = getelementptr inbounds nuw i8, ptr %5, i64 72
  %7 = load ptr, ptr %6, align 8, !tbaa !21
  %8 = zext i32 %1 to i64
  %9 = tail call i32 %7(ptr noundef nonnull %0, ptr noundef null, i64 noundef %8, ptr noundef %2) #5
  %10 = icmp eq i32 %9, 2
  br i1 %10, label %.lr.ph, label %._crit_edge

.lr.ph:                                           ; preds = %4
  %11 = getelementptr inbounds nuw i8, ptr %0, i64 40
  br label %12

._crit_edge:                                      ; preds = %cache_evict_one_internal_no_lock.exit, %4
  ret void

12:                                               ; preds = %.lr.ph, %cache_evict_one_internal_no_lock.exit
  %13 = load ptr, ptr %0, align 8, !tbaa !8
  %14 = getelementptr inbounds nuw i8, ptr %13, i64 64
  %15 = load ptr, ptr %14, align 8, !tbaa !22
  %16 = tail call ptr %15(ptr noundef nonnull %0, ptr noundef %2) #5
  %.not12 = icmp eq ptr %16, null
  br i1 %.not12, label %cache_evict_one_internal_no_lock.exit, label %17

17:                                               ; preds = %12
  %18 = load ptr, ptr %0, align 8, !tbaa !8
  %19 = getelementptr inbounds nuw i8, ptr %18, i64 40
  %20 = load ptr, ptr %19, align 8, !tbaa !23
  tail call void %20(ptr noundef nonnull %0, ptr noundef nonnull %16, ptr noundef %2) #5
  %21 = load ptr, ptr %11, align 8, !tbaa !20
  %22 = tail call ptr @lv_cache_entry_get_data(ptr noundef nonnull %16) #5
  tail call void %21(ptr noundef %22, ptr noundef %2) #5
  tail call void @lv_cache_entry_delete(ptr noundef nonnull %16) #5
  br label %cache_evict_one_internal_no_lock.exit

cache_evict_one_internal_no_lock.exit:            ; preds = %12, %17
  %23 = load ptr, ptr %0, align 8, !tbaa !8
  %24 = getelementptr inbounds nuw i8, ptr %23, i64 72
  %25 = load ptr, ptr %24, align 8, !tbaa !21
  %26 = tail call i32 %25(ptr noundef nonnull %0, ptr noundef null, i64 noundef %8, ptr noundef %2) #5
  %27 = icmp eq i32 %26, 2
  br i1 %27, label %12, label %._crit_edge, !llvm.loop !28
}